; Function Attrs: nounwind uwtable
define internal void @srt_cancel_overrides_cb(ptr noundef %0, ptr noundef %1) #1 {
  %3 = getelementptr inbounds nuw i8, ptr %0, i64 1104
  %4 = load i32, ptr %3, align 8, !tbaa !58
  %.not1217.i = icmp eq i32 %4, 0
  br i1 %.not1217.i, label %srt_stack_push_pop.exit, label %.lr.ph.i

.lr.ph.i:                                         ; preds = %2
  %5 = getelementptr inbounds nuw i8, ptr %0, i64 1040
  br label %6

6:                                                ; preds = %srt_stack_pop.exit.thread.i, %.lr.ph.i
  %7 = phi i32 [ %4, %.lr.ph.i ], [ %17, %srt_stack_pop.exit.thread.i ]
  %8 = icmp slt i32 %7, 1
  br i1 %8, label %srt_stack_pop.exit.thread.i, label %srt_stack_pop.exit.i

srt_stack_pop.exit.i:                             ; preds = %6
  %9 = add nsw i32 %7, -1
  store i32 %9, ptr %3, align 8, !tbaa !58
  %10 = zext nneg i32 %9 to i64
  %11 = getelementptr inbounds nuw [64 x i8], ptr %5, i64 0, i64 %10
  %12 = load i8, ptr %11, align 1, !tbaa !59
  %.fr.i = freeze i8 %12
  %13 = sext i8 %.fr.i to i32
  %14 = icmp eq i8 %.fr.i, 102
  %spec.select.i = select i1 %14, ptr @.str.21, ptr @.str.22
  br label %srt_stack_pop.exit.thread.i

srt_stack_pop.exit.thread.i:                      ; preds = %srt_stack_pop.exit.i, %6
  %15 = phi i32 [ 0, %6 ], [ %13, %srt_stack_pop.exit.i ]
  %16 = phi ptr [ @.str.22, %6 ], [ %spec.select.i, %srt_stack_pop.exit.i ]
  tail call void (ptr, ptr, ...) @srt_print(ptr noundef nonnull %0, ptr noundef nonnull @.str.20, i32 noundef %15, ptr noundef nonnull %16)
  %17 = load i32, ptr %3, align 8, !tbaa !58
  %.not12.i = icmp eq i32 %17, 0
  br i1 %.not12.i, label %srt_stack_push_pop.exit, label %6, !llvm.loop !65

srt_stack_push_pop.exit:                          ; preds = %srt_stack_pop.exit.thread.i, %2
  tail call fastcc void @srt_style_apply(ptr noundef nonnull %0, ptr noundef %1)
  ret void
}